; Function Attrs: mustprogress nounwind uwtable
define hidden void @_ZN14JfrThreadLocal21on_set_current_threadEP10JavaThreadP7oopDesc(ptr noundef nonnull %0, ptr noundef %1) local_unnamed_addr #0 align 2 {
  %3 = tail call noundef ptr @_ZNK10JavaThread9threadObjEv(ptr noundef nonnull align 8 dereferenceable(1800) %0) #13
  %.not = icmp eq ptr %3, %1
  br i1 %.not, label %4, label %6

4:                                                ; preds = %2
  %5 = getelementptr inbounds i8, ptr %0, i64 776
  tail call void asm sideeffect "", "~{memory},~{dirflag},~{fpsr},~{flags}"() #13, !srcloc !7
  store volatile i8 0, ptr %5, align 1
  br label %26

6:                                                ; preds = %2
  %7 = getelementptr inbounds i8, ptr %0, i64 672
  %8 = load i32, ptr @_ZN16java_lang_Thread11_tid_offsetE, align 4
  %9 = ptrtoint ptr %1 to i64
  %10 = sext i32 %8 to i64
  %11 = add nsw i64 %10, %9
  %12 = inttoptr i64 %11 to ptr
  %13 = load i64, ptr %12, align 8
  store volatile i64 %13, ptr %7, align 8
  %14 = load i32, ptr @_ZN16java_lang_Thread17_jfr_epoch_offsetE, align 4
  %15 = sext i32 %14 to i64
  %16 = add nsw i64 %15, %9
  %17 = inttoptr i64 %16 to ptr
  %18 = load i16, ptr %17, align 2
  %19 = icmp slt i16 %18, 0
  %20 = getelementptr inbounds i8, ptr %0, i64 774
  %.lobit = lshr i16 %18, 15
  %21 = trunc nuw nsw i16 %.lobit to i8
  store volatile i8 %21, ptr %20, align 1
  br i1 %19, label %24, label %22

22:                                               ; preds = %6
  %23 = getelementptr inbounds i8, ptr %0, i64 772
  store volatile i16 %18, ptr %23, align 2
  br label %24

24:                                               ; preds = %22, %6
  %25 = getelementptr inbounds i8, ptr %0, i64 776
  tail call void asm sideeffect "", "~{memory},~{dirflag},~{fpsr},~{flags}"() #13, !srcloc !7
  store volatile i8 1, ptr %25, align 1
  br label %26

26:                                               ; preds = %24, %4
  ret void
}